; Function Attrs: mustprogress nofree norecurse nosync nounwind sspstrong willreturn memory(read, inaccessiblemem: none) uwtable
define dso_local i64 @rb_ractor_stdin() local_unnamed_addr #5 {
  %1 = load ptr, ptr @ruby_single_main_ractor, align 8, !tbaa !39
  %.not.i = icmp eq ptr %1, null
  br i1 %.not.i, label %rb_ractor_main_p.exit, label %rb_ractor_main_p.exit.thread

rb_ractor_main_p.exit:                            ; preds = %0
  %2 = tail call align 8 ptr @llvm.threadlocal.address.p0(ptr align 8 @ruby_current_ec)
  %3 = load ptr, ptr %2, align 8, !tbaa !123
  %4 = getelementptr i8, ptr %3, i64 48
  %.val.i.i = load ptr, ptr %4, align 8, !tbaa !90, !nonnull !99, !noundef !99
  %5 = getelementptr inbounds nuw i8, ptr %.val.i.i, i64 24
  %6 = load ptr, ptr %5, align 8, !tbaa !57
  %7 = getelementptr inbounds nuw i8, ptr %.val.i.i, i64 32
  %8 = load ptr, ptr %7, align 8, !tbaa !79
  %9 = getelementptr inbounds nuw i8, ptr %8, i64 32
  %10 = load ptr, ptr %9, align 8, !tbaa !124
  %11 = icmp eq ptr %6, %10
  %12 = getelementptr inbounds nuw i8, ptr %6, i64 472
  %spec.select = select i1 %11, ptr @rb_stdin, ptr %12
  br label %rb_ractor_main_p.exit.thread

rb_ractor_main_p.exit.thread:                     ; preds = %rb_ractor_main_p.exit, %0
  %.0.in = phi ptr [ @rb_stdin, %0 ], [ %spec.select, %rb_ractor_main_p.exit ]
  %.0 = load i64, ptr %.0.in, align 8, !tbaa !80
  ret i64 %.0
}